; Function Attrs: nounwind uwtable
define noalias nonnull ptr @l_Array_forIn_x27Unsafe_loop___at_Lean_Server_Completion_find_x3f___spec__1___lambda__1(ptr noundef %0, ptr noundef %1, ptr readnone captures(none) %2, ptr noundef %3) local_unnamed_addr #0 {
  %5 = tail call ptr @l_Array_append___rarg(ptr noundef %0, ptr noundef %1) #4
  tail call void @lean_inc_heartbeat() #4
  %6 = tail call noalias ptr @mi_malloc_small(i64 noundef 16) #4
  %7 = icmp eq ptr %6, null
  br i1 %7, label %8, label %lean_alloc_ctor.exit

8:                                                ; preds = %4
  tail call void @lean_internal_panic_out_of_memory() #5
  unreachable

lean_alloc_ctor.exit:                             ; preds = %4
  %9 = getelementptr inbounds nuw i8, ptr %6, i64 4
  store i32 1, ptr %6, align 4, !tbaa !4
  store i32 16842768, ptr %9, align 4
  %10 = getelementptr inbounds nuw i8, ptr %6, i64 8
  store ptr %5, ptr %10, align 8, !tbaa !10
  tail call void @lean_inc_heartbeat() #4
  %11 = tail call noalias ptr @mi_malloc_small(i64 noundef 16) #4
  %12 = icmp eq ptr %11, null
  br i1 %12, label %13, label %lean_alloc_ctor.exit11

13:                                               ; preds = %lean_alloc_ctor.exit
  tail call void @lean_internal_panic_out_of_memory() #5
  unreachable

lean_alloc_ctor.exit11:                           ; preds = %lean_alloc_ctor.exit
  %14 = getelementptr inbounds nuw i8, ptr %11, i64 4
  store i32 1, ptr %11, align 4, !tbaa !4
  store i32 16842768, ptr %14, align 4
  %15 = getelementptr inbounds nuw i8, ptr %11, i64 8
  store ptr %6, ptr %15, align 8, !tbaa !10
  tail call void @lean_inc_heartbeat() #4
  %16 = tail call noalias ptr @mi_malloc_small(i64 noundef 24) #4
  %17 = icmp eq ptr %16, null
  br i1 %17, label %18, label %lean_alloc_ctor.exit12

18:                                               ; preds = %lean_alloc_ctor.exit11
  tail call void @lean_internal_panic_out_of_memory() #5
  unreachable

lean_alloc_ctor.exit12:                           ; preds = %lean_alloc_ctor.exit11
  %19 = getelementptr inbounds nuw i8, ptr %16, i64 4
  store i32 1, ptr %16, align 4, !tbaa !4
  store i32 131096, ptr %19, align 4
  %20 = getelementptr inbounds nuw i8, ptr %16, i64 8
  store ptr %11, ptr %20, align 8, !tbaa !10
  %21 = getelementptr inbounds nuw i8, ptr %16, i64 16
  store ptr %3, ptr %21, align 8, !tbaa !10
  ret ptr %16
}